target datalayout = "e-m:e-p270:32:32-p271:32:32-p272:64:64-i64:64-i128:128-f80:128-n8:16:32:64-S128"
target triple = "x86_64-pc-linux-gnu"

%struct.Vec_Int_t_ = type { i32, i32, ptr }
%struct.Abc_Ntk_t_ = type { i32, i32, ptr, ptr, ptr, ptr, ptr, ptr, ptr, ptr, ptr, ptr, ptr, [11 x i32], i32, i32, i32, i32, ptr, i32, ptr, ptr, i32, i32, i32, double, i32, %struct.Vec_Int_t_, ptr, ptr, ptr, ptr, ptr, float, i32, ptr, ptr, ptr, ptr, ptr, ptr, ptr, ptr, ptr, ptr, ptr, ptr, ptr, ptr, ptr, ptr, ptr, ptr, ptr, ptr, ptr }
%struct.Aig_Man_t_ = type { ptr, ptr, ptr, ptr, ptr, ptr, ptr, %struct.Aig_Obj_t_, i32, i32, i32, i32, i32, i32, [7 x i32], i32, ptr, i32, ptr, i32, ptr, i32, i32, i32, ptr, i32, i32, i32, i32, i32, ptr, ptr, i32, ptr, ptr, i32, ptr, ptr, i32, i32, i32, ptr, ptr, ptr, ptr, ptr, ptr, ptr, ptr, ptr, ptr, ptr, ptr, ptr, ptr, i32, ptr, ptr, ptr, ptr, i32, i64, i64, i64, ptr, ptr }
%struct.Aig_Obj_t_ = type { %union.anon, ptr, ptr, i64, i32, i32, %union.anon.0 }
%union.anon = type { ptr }
%union.anon.0 = type { ptr }

; Function Attrs: nounwind uwtable
define i32 @Abc_NtkDSat(ptr noundef %0, i64 noundef %1, i64 noundef %2, i32 noundef %3, i32 noundef %4, i32 noundef %5, i32 noundef %6, i32 noundef %7, i32 noundef %8, i32 noundef %9) #0 {
  %11 = alloca ptr, align 8
  %12 = alloca i64, align 8
  %13 = alloca i64, align 8
  %14 = alloca i32, align 4
  %15 = alloca i32, align 4
  %16 = alloca i32, align 4
  %17 = alloca i32, align 4
  %18 = alloca i32, align 4
  %19 = alloca i32, align 4
  %20 = alloca i32, align 4
  %21 = alloca ptr, align 8
  %22 = alloca i32, align 4
  store ptr %0, ptr %11, align 8
  store i64 %1, ptr %12, align 8
  store i64 %2, ptr %13, align 8
  store i32 %3, ptr %14, align 4
  store i32 %4, ptr %15, align 4
  store i32 %5, ptr %16, align 4
  store i32 %6, ptr %17, align 4
  store i32 %7, ptr %18, align 4
  store i32 %8, ptr %19, align 4
  store i32 %9, ptr %20, align 4
  %23 = load ptr, ptr %11, align 8
  %24 = call ptr @Abc_NtkToDar(ptr noundef %23, i32 noundef 0, i32 noundef 0)
  store ptr %24, ptr %21, align 8
  %25 = load ptr, ptr %21, align 8
  %26 = load i64, ptr %12, align 8
  %27 = load i64, ptr %13, align 8
  %28 = load i32, ptr %14, align 4
  %29 = load i32, ptr %15, align 4
  %30 = load i32, ptr %16, align 4
  %31 = load i32, ptr %17, align 4
  %32 = load i32, ptr %18, align 4
  %33 = load i32, ptr %19, align 4
  %34 = load i32, ptr %20, align 4
  %35 = call i32 @Fra_FraigSat(ptr noundef %25, i64 noundef %26, i64 noundef %27, i32 noundef %28, i32 noundef %29, i32 noundef %30, i32 noundef %31, i32 noundef %32, i32 noundef %33, i32 noundef %34)
  store i32 %35, ptr %22, align 4
  %36 = load ptr, ptr %21, align 8
  %37 = getelementptr inbounds %struct.Aig_Man_t_, ptr %36, i32 0, i32 36
  %38 = load ptr, ptr %37, align 8
  %39 = load ptr, ptr %11, align 8
  %40 = getelementptr inbounds %struct.Abc_Ntk_t_, ptr %39, i32 0, i32 37
  store ptr %38, ptr %40, align 8
  %41 = load ptr, ptr %21, align 8
  %42 = getelementptr inbounds %struct.Aig_Man_t_, ptr %41, i32 0, i32 36
  store ptr null, ptr %42, align 8
  %43 = load ptr, ptr %21, align 8
  call void @Aig_ManStop(ptr noundef %43)
  %44 = load i32, ptr %22, align 4
  ret i32 %44
}