; Function Attrs: nounwind uwtable
define i32 @Abc_NtkDSat(ptr noundef %0, i64 noundef %1, i64 noundef %2, i32 noundef %3, i32 noundef %4, i32 noundef %5, i32 noundef %6, i32 noundef %7, i32 noundef %8, i32 noundef %9) local_unnamed_addr #1 {
  %11 = tail call ptr @Abc_NtkToDar(ptr noundef %0, i32 noundef 0, i32 noundef 0)
  %12 = tail call i32 @Fra_FraigSat(ptr noundef %11, i64 noundef %1, i64 noundef %2, i32 noundef %3, i32 noundef %4, i32 noundef %5, i32 noundef %6, i32 noundef %7, i32 noundef %8, i32 noundef %9) #19
  %13 = getelementptr inbounds nuw i8, ptr %11, i64 296
  %14 = load ptr, ptr %13, align 8
  %15 = getelementptr inbounds nuw i8, ptr %0, i64 304
  store ptr %14, ptr %15, align 8
  store ptr null, ptr %13, align 8
  tail call void @Aig_ManStop(ptr noundef %11) #19
  ret i32 %12
}